target datalayout = "e-m:e-p270:32:32-p271:32:32-p272:64:64-i64:64-i128:128-f80:128-n8:16:32:64-S128"
target triple = "x86_64-unknown-linux-gnu"

%"union.std::aligned_storage<8, 8>::type" = type { [8 x i8] }
%class.sbuffer = type { %class.buffer.304 }
%class.buffer.304 = type { ptr, i32, i32, [16 x %"union.std::aligned_storage<8, 8>::type"] }

; Function Attrs: mustprogress nounwind uwtable
define linkonce_odr hidden void @_ZN6bufferI6symbolLb0ELj16EEC2Ev(ptr noundef nonnull align 8 dereferenceable(144) %this) unnamed_addr #5 comdat align 2 {
entry:
  %this.addr = alloca ptr, align 8
  store ptr %this, ptr %this.addr, align 8
  %this1 = load ptr, ptr %this.addr, align 8
  %m_buffer = getelementptr inbounds %class.buffer.304, ptr %this1, i32 0, i32 0
  %m_initial_buffer = getelementptr inbounds %class.buffer.304, ptr %this1, i32 0, i32 3
  %arraydecay = getelementptr inbounds [16 x %"union.std::aligned_storage<8, 8>::type"], ptr %m_initial_buffer, i64 0, i64 0
  store ptr %arraydecay, ptr %m_buffer, align 8
  %m_pos = getelementptr inbounds %class.buffer.304, ptr %this1, i32 0, i32 1
  store i32 0, ptr %m_pos, align 8
  %m_capacity = getelementptr inbounds %class.buffer.304, ptr %this1, i32 0, i32 2
  store i32 16, ptr %m_capacity, align 4
  ret void
}

; Function Attrs: mustprogress nounwind uwtable
define linkonce_odr hidden void @_ZN7sbufferI6symbolLj16EEC2Ev(ptr noundef nonnull align 8 dereferenceable(144) %this) unnamed_addr #5 comdat align 2 {
entry:
  %this.addr = alloca ptr, align 8
  store ptr %this, ptr %this.addr, align 8
  %this1 = load ptr, ptr %this.addr, align 8
  %0 = getelementptr inbounds i8, ptr %this1, i64 0
  call void @llvm.memset.p0.i64(ptr align 8 %0, i8 0, i64 144, i1 false)
  call void @_ZN6bufferI6symbolLb0ELj16EEC2Ev(ptr noundef nonnull align 8 dereferenceable(144) %this1) #3
  ret void
}

; Function Attrs: mustprogress uwtable
define hidden void @_ZNK11cmd_context2ppEP4exprR7obj_refI3app11ast_managerE(ptr noundef nonnull align 8 dereferenceable(872) %this, ptr noundef %n, ptr noundef nonnull align 8 dereferenceable(16) %r) unnamed_addr #4 align 2 personality ptr @__gxx_personality_v0 {
entry:
  %this.addr = alloca ptr, align 8
  %n.addr = alloca ptr, align 8
  %r.addr = alloca ptr, align 8
  %buf = alloca %class.sbuffer, align 8
  %exn.slot = alloca ptr, align 8
  %ehselector.slot = alloca i32, align 4
  store ptr %this, ptr %this.addr, align 8
  store ptr %n, ptr %n.addr, align 8
  store ptr %r, ptr %r.addr, align 8
  %this1 = load ptr, ptr %this.addr, align 8
  call void @_ZN7sbufferI6symbolLj16EEC2Ev(ptr noundef nonnull align 8 dereferenceable(144) %buf)
  %0 = load ptr, ptr %n.addr, align 8
  %1 = load ptr, ptr %r.addr, align 8
  %vtable = load ptr, ptr %this1, align 8
  %vfn = getelementptr inbounds ptr, ptr %vtable, i64 9
  %2 = load ptr, ptr %vfn, align 8
  invoke void %2(ptr noundef nonnull align 8 dereferenceable(872) %this1, ptr noundef %0, i32 noundef 0, ptr noundef null, ptr noundef nonnull align 8 dereferenceable(16) %1, ptr noundef nonnull align 8 dereferenceable(144) %buf)
          to label %invoke.cont unwind label %lpad

invoke.cont:                                      ; preds = %entry
  call void @_ZN7sbufferI6symbolLj16EED2Ev(ptr noundef nonnull align 8 dereferenceable(144) %buf) #3
  ret void

lpad:                                             ; preds = %entry
  %3 = landingpad { ptr, i32 }
          cleanup
  %4 = extractvalue { ptr, i32 } %3, 0
  store ptr %4, ptr %exn.slot, align 8
  %5 = extractvalue { ptr, i32 } %3, 1
  store i32 %5, ptr %ehselector.slot, align 4
  call void @_ZN7sbufferI6symbolLj16EED2Ev(ptr noundef nonnull align 8 dereferenceable(144) %buf) #3
  br label %eh.resume

eh.resume:                                        ; preds = %lpad
  %exn = load ptr, ptr %exn.slot, align 8
  %sel = load i32, ptr %ehselector.slot, align 4
  %lpad.val = insertvalue { ptr, i32 } poison, ptr %exn, 0
  %lpad.val2 = insertvalue { ptr, i32 } %lpad.val, i32 %sel, 1
  resume { ptr, i32 } %lpad.val2
}

; Function Attrs: uwtable
define hidden void @_ZThn104_NK11cmd_context2ppEP4exprR7obj_refI3app11ast_managerE(ptr noundef %this, ptr noundef %n, ptr noundef nonnull align 8 dereferenceable(16) %r) unnamed_addr #0 align 2 {
entry:
  %this.addr = alloca ptr, align 8
  %n.addr = alloca ptr, align 8
  %r.addr = alloca ptr, align 8
  store ptr %this, ptr %this.addr, align 8
  store ptr %n, ptr %n.addr, align 8
  store ptr %r, ptr %r.addr, align 8
  %this1 = load ptr, ptr %this.addr, align 8
  %0 = getelementptr inbounds i8, ptr %this1, i64 -104
  %1 = load ptr, ptr %n.addr, align 8
  %2 = load ptr, ptr %r.addr, align 8
  tail call void @_ZNK11cmd_context2ppEP4exprR7obj_refI3app11ast_managerE(ptr noundef nonnull align 8 dereferenceable(872) %0, ptr noundef %1, ptr noundef nonnull align 8 dereferenceable(16) %2)
  ret void
}