; Function Attrs: uwtable
define hidden void @_ZThn104_NK11cmd_context2ppEP4exprR7obj_refI3app11ast_managerE(ptr noundef %this, ptr noundef %n, ptr noundef nonnull align 8 dereferenceable(16) %r) unnamed_addr #17 align 2 personality ptr @__gxx_personality_v0 {
entry:
  %buf.i = alloca %class.sbuffer, align 8
  %0 = getelementptr inbounds i8, ptr %this, i64 -104
  call void @llvm.lifetime.start.p0(i64 144, ptr nonnull %buf.i)
  %1 = getelementptr inbounds i8, ptr %buf.i, i64 16
  call void @llvm.memset.p0.i64(ptr noundef nonnull align 8 dereferenceable(144) %1, i8 0, i64 128, i1 false)
  store ptr %1, ptr %buf.i, align 8
  %m_pos.i.i.i = getelementptr inbounds i8, ptr %buf.i, i64 8
  store i32 0, ptr %m_pos.i.i.i, align 8
  %m_capacity.i.i.i = getelementptr inbounds i8, ptr %buf.i, i64 12
  store i32 16, ptr %m_capacity.i.i.i, align 4
  %vtable.i = load ptr, ptr %0, align 8
  %vfn.i = getelementptr inbounds i8, ptr %vtable.i, i64 72
  %2 = load ptr, ptr %vfn.i, align 8
  invoke void %2(ptr noundef nonnull align 8 dereferenceable(872) %0, ptr noundef %n, i32 noundef 0, ptr noundef null, ptr noundef nonnull align 8 dereferenceable(16) %r, ptr noundef nonnull align 8 dereferenceable(144) %buf.i)
          to label %invoke.cont.i unwind label %lpad.i

invoke.cont.i:                                    ; preds = %entry
  %3 = load ptr, ptr %buf.i, align 8
  %cmp.not.i.i.i.i.i = icmp eq ptr %3, %1
  %cmp.i.i.i.i.i.i = icmp eq ptr %3, null
  %or.cond.i.i.i.i.i = or i1 %cmp.not.i.i.i.i.i, %cmp.i.i.i.i.i.i
  br i1 %or.cond.i.i.i.i.i, label %_ZNK11cmd_context2ppEP4exprR7obj_refI3app11ast_managerE.exit, label %if.end.i.i.i.i.i.i

if.end.i.i.i.i.i.i:                               ; preds = %invoke.cont.i
  invoke void @_ZN6memory10deallocateEPv(ptr noundef nonnull %3)
          to label %_ZNK11cmd_context2ppEP4exprR7obj_refI3app11ast_managerE.exit unwind label %terminate.lpad.i.i.i

terminate.lpad.i.i.i:                             ; preds = %if.end.i.i.i.i.i.i
  %4 = landingpad { ptr, i32 }
          catch ptr null
  %5 = extractvalue { ptr, i32 } %4, 0
  call void @__clang_call_terminate(ptr %5) #24
  unreachable

lpad.i:                                           ; preds = %entry
  %6 = landingpad { ptr, i32 }
          cleanup
  call void @_ZN7sbufferI6symbolLj16EED2Ev(ptr noundef nonnull align 8 dereferenceable(144) %buf.i) #25
  resume { ptr, i32 } %6

_ZNK11cmd_context2ppEP4exprR7obj_refI3app11ast_managerE.exit: ; preds = %invoke.cont.i, %if.end.i.i.i.i.i.i
  call void @llvm.lifetime.end.p0(i64 144, ptr nonnull %buf.i)
  ret void
}